target datalayout = "e-m:e-p270:32:32-p271:32:32-p272:64:64-i64:64-i128:128-f80:128-n8:16:32:64-S128"
target triple = "x86_64-pc-linux-gnu"

%struct.mbedtls_psa_aead_operation_t = type { i32, i16, i8, i8, %union.anon }
%union.anon = type { %struct.mbedtls_gcm_context }
%struct.mbedtls_gcm_context = type { %struct.mbedtls_cipher_context_t, [16 x [2 x i64]], i64, i64, [16 x i8], [16 x i8], [16 x i8], i8, i8 }
%struct.mbedtls_cipher_context_t = type { ptr, i32, i32, ptr, ptr, [16 x i8], i64, [16 x i8], i64, ptr, ptr }

; Function Attrs: nounwind uwtable
define hidden i32 @mbedtls_psa_aead_decrypt_setup(ptr noundef %0, ptr noundef %1, ptr noundef %2, i64 noundef %3, i32 noundef %4) #0 {
  %6 = alloca ptr, align 8
  %7 = alloca ptr, align 8
  %8 = alloca ptr, align 8
  %9 = alloca i64, align 8
  %10 = alloca i32, align 4
  %11 = alloca i32, align 4
  store ptr %0, ptr %6, align 8, !tbaa !20
  store ptr %1, ptr %7, align 8, !tbaa !3
  store ptr %2, ptr %8, align 8, !tbaa !8
  store i64 %3, ptr %9, align 8, !tbaa !10
  store i32 %4, ptr %10, align 4, !tbaa !12
  call void @llvm.lifetime.start.p0(i64 4, ptr %11) #5
  store i32 -151, ptr %11, align 4, !tbaa !12
  %12 = load ptr, ptr %6, align 8, !tbaa !20
  %13 = load ptr, ptr %7, align 8, !tbaa !3
  %14 = load ptr, ptr %8, align 8, !tbaa !8
  %15 = load i64, ptr %9, align 8, !tbaa !10
  %16 = load i32, ptr %10, align 4, !tbaa !12
  %17 = call i32 @psa_aead_setup(ptr noundef %12, ptr noundef %13, ptr noundef %14, i64 noundef %15, i32 noundef %16)
  store i32 %17, ptr %11, align 4, !tbaa !12
  %18 = load i32, ptr %11, align 4, !tbaa !12
  %19 = icmp eq i32 %18, 0
  br i1 %19, label %20, label %26

20:                                               ; preds = %5
  %21 = load ptr, ptr %6, align 8, !tbaa !20
  %22 = getelementptr inbounds nuw %struct.mbedtls_psa_aead_operation_t, ptr %21, i32 0, i32 2
  %23 = load i8, ptr %22, align 2
  %24 = and i8 %23, -2
  %25 = or i8 %24, 0
  store i8 %25, ptr %22, align 2
  br label %26

26:                                               ; preds = %20, %5
  %27 = load i32, ptr %11, align 4, !tbaa !12
  call void @llvm.lifetime.end.p0(i64 4, ptr %11) #5
  ret i32 %27
}